target datalayout = "e-m:e-p270:32:32-p271:32:32-p272:64:64-i64:64-i128:128-f80:128-n8:16:32:64-S128"
target triple = "x86_64-unknown-linux-gnu"

%"struct.facebook::velox::common::InputByteStream" = type <{ ptr, i32, [4 x i8] }>

; Function Attrs: mustprogress nounwind uwtable
define linkonce_odr noundef signext i8 @_ZN8facebook5velox6common15InputByteStream4readIaEET_v(ptr noundef nonnull align 8 dereferenceable(12) %this) #1 comdat align 2 {
entry:
  %this.addr = alloca ptr, align 8
  %value = alloca i8, align 1
  store ptr %this, ptr %this.addr, align 8
  %this1 = load ptr, ptr %this.addr, align 8
  %data_ = getelementptr inbounds %"struct.facebook::velox::common::InputByteStream", ptr %this1, i32 0, i32 0
  %0 = load ptr, ptr %data_, align 8
  %offset_ = getelementptr inbounds %"struct.facebook::velox::common::InputByteStream", ptr %this1, i32 0, i32 1
  %1 = load i32, ptr %offset_, align 8
  %idx.ext = sext i32 %1 to i64
  %add.ptr = getelementptr inbounds i8, ptr %0, i64 %idx.ext
  %2 = load i8, ptr %add.ptr, align 1
  store i8 %2, ptr %value, align 1
  %offset_2 = getelementptr inbounds %"struct.facebook::velox::common::InputByteStream", ptr %this1, i32 0, i32 1
  %3 = load i32, ptr %offset_2, align 8
  %conv = sext i32 %3 to i64
  %add = add i64 %conv, 1
  %conv3 = trunc i64 %add to i32
  store i32 %conv3, ptr %offset_2, align 8
  %4 = load i8, ptr %value, align 1
  ret i8 %4
}

; Function Attrs: mustprogress nounwind uwtable
define linkonce_odr void @_ZN8facebook5velox6common15InputByteStreamC2EPKc(ptr noundef nonnull align 8 dereferenceable(12) %this, ptr noundef %data) unnamed_addr #1 comdat align 2 {
entry:
  %this.addr = alloca ptr, align 8
  %data.addr = alloca ptr, align 8
  store ptr %this, ptr %this.addr, align 8
  store ptr %data, ptr %data.addr, align 8
  %this1 = load ptr, ptr %this.addr, align 8
  %data_ = getelementptr inbounds %"struct.facebook::velox::common::InputByteStream", ptr %this1, i32 0, i32 0
  %0 = load ptr, ptr %data.addr, align 8
  store ptr %0, ptr %data_, align 8
  %offset_ = getelementptr inbounds %"struct.facebook::velox::common::InputByteStream", ptr %this1, i32 0, i32 1
  store i32 0, ptr %offset_, align 8
  ret void
}

; Function Attrs: mustprogress nounwind uwtable
define linkonce_odr noundef double @_ZN8facebook5velox6common3hll14linearCountingEii(i32 noundef %zeroBuckets, i32 noundef %totalBuckets) #1 comdat {
entry:
  %zeroBuckets.addr = alloca i32, align 4
  %totalBuckets.addr = alloca i32, align 4
  store i32 %zeroBuckets, ptr %zeroBuckets.addr, align 4
  store i32 %totalBuckets, ptr %totalBuckets.addr, align 4
  %0 = load i32, ptr %totalBuckets.addr, align 4
  %conv = sitofp i32 %0 to double
  %1 = load i32, ptr %totalBuckets.addr, align 4
  %conv1 = sitofp i32 %1 to double
  %mul = fmul double %conv1, 1.000000e+00
  %2 = load i32, ptr %zeroBuckets.addr, align 4
  %conv2 = sitofp i32 %2 to double
  %div = fdiv double %mul, %conv2
  %call = call double @log(double noundef %div) #11
  %mul3 = fmul double %conv, %call
  ret double %mul3
}

; Function Attrs: mustprogress nounwind uwtable
define linkonce_odr noundef signext i16 @_ZN8facebook5velox6common15InputByteStream4readIsEET_v(ptr noundef nonnull align 8 dereferenceable(12) %this) #1 comdat align 2 {
entry:
  %this.addr = alloca ptr, align 8
  %value = alloca i16, align 2
  store ptr %this, ptr %this.addr, align 8
  %this1 = load ptr, ptr %this.addr, align 8
  %data_ = getelementptr inbounds %"struct.facebook::velox::common::InputByteStream", ptr %this1, i32 0, i32 0
  %0 = load ptr, ptr %data_, align 8
  %offset_ = getelementptr inbounds %"struct.facebook::velox::common::InputByteStream", ptr %this1, i32 0, i32 1
  %1 = load i32, ptr %offset_, align 8
  %idx.ext = sext i32 %1 to i64
  %add.ptr = getelementptr inbounds i8, ptr %0, i64 %idx.ext
  %2 = load i16, ptr %add.ptr, align 2
  store i16 %2, ptr %value, align 2
  %offset_2 = getelementptr inbounds %"struct.facebook::velox::common::InputByteStream", ptr %this1, i32 0, i32 1
  %3 = load i32, ptr %offset_2, align 8
  %conv = sext i32 %3 to i64
  %add = add i64 %conv, 2
  %conv3 = trunc i64 %add to i32
  store i32 %conv3, ptr %offset_2, align 8
  %4 = load i16, ptr %value, align 2
  ret i16 %4
}

; Function Attrs: mustprogress uwtable
define internal { ptr, i32 } @_ZN8facebook5velox6common3hll12_GLOBAL__N_121initializeInputStreamEPKc(ptr noundef %serialized) #0 {
entry:
  %retval = alloca %"struct.facebook::velox::common::InputByteStream", align 8
  %serialized.addr = alloca ptr, align 8
  %version = alloca i8, align 1
  store ptr %serialized, ptr %serialized.addr, align 8
  %0 = load ptr, ptr %serialized.addr, align 8
  call void @_ZN8facebook5velox6common15InputByteStreamC2EPKc(ptr noundef nonnull align 8 dereferenceable(12) %retval, ptr noundef %0)
  %call = call noundef signext i8 @_ZN8facebook5velox6common15InputByteStream4readIaEET_v(ptr noundef nonnull align 8 dereferenceable(12) %retval)
  store i8 %call, ptr %version, align 1
  %1 = load i8, ptr %version, align 1
  %conv = sext i8 %1 to i32
  %cmp = icmp eq i32 2, %conv
  %lnot = xor i1 %cmp, true
  br i1 %lnot, label %if.then, label %if.end

if.then:                                          ; preds = %entry
  call void @llvm.trap()
  br label %if.end

if.end:                                           ; preds = %if.then, %entry
  %call2 = call noundef signext i8 @_ZN8facebook5velox6common15InputByteStream4readIaEET_v(ptr noundef nonnull align 8 dereferenceable(12) %retval)
  %2 = load { ptr, i32 }, ptr %retval, align 8
  ret { ptr, i32 } %2
}

; Function Attrs: mustprogress uwtable
define noundef i64 @_ZN8facebook5velox6common3hll9SparseHll11cardinalityEPKc(ptr noundef %serialized) #0 align 2 {
entry:
  %serialized.addr = alloca ptr, align 8
  %stream = alloca %"struct.facebook::velox::common::InputByteStream", align 8
  %size = alloca i16, align 2
  %zeroBuckets = alloca i32, align 4
  store ptr %serialized, ptr %serialized.addr, align 8
  %0 = load ptr, ptr %serialized.addr, align 8
  %call = call { ptr, i32 } @_ZN8facebook5velox6common3hll12_GLOBAL__N_121initializeInputStreamEPKc(ptr noundef %0)
  %1 = getelementptr inbounds { ptr, i32 }, ptr %stream, i32 0, i32 0
  %2 = extractvalue { ptr, i32 } %call, 0
  store ptr %2, ptr %1, align 8
  %3 = getelementptr inbounds { ptr, i32 }, ptr %stream, i32 0, i32 1
  %4 = extractvalue { ptr, i32 } %call, 1
  store i32 %4, ptr %3, align 8
  %call1 = call noundef signext i16 @_ZN8facebook5velox6common15InputByteStream4readIsEET_v(ptr noundef nonnull align 8 dereferenceable(12) %stream)
  store i16 %call1, ptr %size, align 2
  %5 = load i16, ptr %size, align 2
  %conv = sext i16 %5 to i32
  %sub = sub nsw i32 67108864, %conv
  store i32 %sub, ptr %zeroBuckets, align 4
  %6 = load i32, ptr %zeroBuckets, align 4
  %call2 = call noundef double @_ZN8facebook5velox6common3hll14linearCountingEii(i32 noundef %6, i32 noundef 67108864)
  %7 = call double @llvm.round.f64(double %call2)
  %conv3 = fptosi double %7 to i64
  ret i64 %conv3
}