; Function Attrs: mustprogress nounwind memory(write, argmem: readwrite) uwtable
define noundef i64 @_ZN8facebook5velox6common3hll9SparseHll11cardinalityEPKc(ptr noundef readonly captures(none) %serialized) local_unnamed_addr #3 align 2 {
entry:
  %0 = load i8, ptr %serialized, align 1
  %cmp.not.i = icmp eq i8 %0, 2
  br i1 %cmp.not.i, label %_ZN8facebook5velox6common3hll12_GLOBAL__N_121initializeInputStreamEPKc.exit, label %if.then.i

if.then.i:                                        ; preds = %entry
  tail call void @llvm.trap()
  unreachable

_ZN8facebook5velox6common3hll12_GLOBAL__N_121initializeInputStreamEPKc.exit: ; preds = %entry
  %add.ptr.i = getelementptr inbounds nuw i8, ptr %serialized, i64 2
  %1 = load i16, ptr %add.ptr.i, align 2
  %conv = sext i16 %1 to i32
  %sub = sub nsw i32 67108864, %conv
  %conv2.i = uitofp nneg i32 %sub to double
  %div.i = fdiv double 0x4190000000000000, %conv2.i
  %call.i = tail call double @log(double noundef %div.i) #22
  %mul3.i = fmul double %call.i, 0x4190000000000000
  %2 = tail call double @llvm.round.f64(double %mul3.i)
  %conv3 = fptosi double %2 to i64
  ret i64 %conv3
}